target datalayout = "e-m:e-p270:32:32-p271:32:32-p272:64:64-i64:64-i128:128-f80:128-n8:16:32:64-S128"
target triple = "x86_64-pc-linux-gnu"

%struct._zend_executor_globals = type { %struct._zval_struct, %struct._zval_struct, [32 x ptr], ptr, ptr, %struct._zend_array, %struct._zend_array, ptr, i32, i8, %struct._zval_struct, i32, ptr, ptr, ptr, ptr, ptr, ptr, i64, ptr, ptr, i32, ptr, i32, i64, i32, i32, i32, i8, i8, %struct.zend_atomic_bool_s, %struct.zend_atomic_bool_s, ptr, i64, ptr, ptr, %struct._zend_array, %struct._zend_array, i32, i8, %struct._zval_struct, %struct._zval_struct, %struct._zend_stack, %struct._zend_stack, %struct._zend_stack, ptr, i32, i32, i64, ptr, ptr, ptr, %struct._zend_objects_store, %struct._zend_lazy_objects_store, ptr, ptr, ptr, [3 x %struct._zend_op], ptr, i8, i8, i64, i32, i32, ptr, [16 x %struct._HashTableIterator], ptr, %union._zend_function, %struct._zend_op, %struct._zend_array, i64, %struct.zend_get_gc_buffer, ptr, ptr, ptr, i64, i8, i32, ptr, ptr, i64, %struct._zend_call_stack, i64, i64, %struct._zend_strtod_state, [6 x ptr] }
%struct.zend_atomic_bool_s = type { i8 }
%struct._zval_struct = type { %union._zend_value, %union.anon, %union.anon.2 }
%union._zend_value = type { i64 }
%union.anon = type { i32 }
%union.anon.2 = type { i32 }
%struct._zend_stack = type { i32, i32, i32, ptr }
%struct._zend_objects_store = type { ptr, i32, i32, i32 }
%struct._zend_lazy_objects_store = type { %struct._zend_array }
%struct._HashTableIterator = type { ptr, i32, i32 }
%union._zend_function = type { %struct._zend_op_array }
%struct._zend_op_array = type { i8, [3 x i8], i32, ptr, ptr, ptr, i32, i32, ptr, ptr, ptr, ptr, i32, ptr, i32, i32, i32, ptr, ptr, ptr, ptr, ptr, i32, i32, ptr, ptr, ptr, i32, i32, i32, i32, ptr, ptr, [6 x ptr] }
%struct._zend_op = type { ptr, %union._znode_op, %union._znode_op, %union._znode_op, i32, i32, i8, i8, i8, i8 }
%union._znode_op = type { i32 }
%struct._zend_array = type { %struct._zend_refcounted_h, %union.anon.4, i32, %union.anon.6, i32, i32, i32, i32, i64, ptr }
%struct._zend_refcounted_h = type { i32, %union.anon.3 }
%union.anon.3 = type { i32 }
%union.anon.4 = type { i32 }
%union.anon.6 = type { ptr }
%struct.zend_get_gc_buffer = type { ptr, ptr, ptr }
%struct._zend_call_stack = type { ptr, i64 }
%struct._zend_strtod_state = type { [8 x ptr], ptr, ptr }
%struct._zend_fcall_info_cache = type { ptr, ptr, ptr, ptr, ptr }
%struct._zend_sqlite3_globals = type { ptr, i32 }
%struct._zend_llist = type { ptr, ptr, i64, i64, ptr, i8, ptr }
%struct._zend_execute_data = type { ptr, ptr, ptr, ptr, %struct._zval_struct, ptr, ptr, ptr, ptr }
%struct._php_sqlite3_db_object = type { i8, i8, ptr, ptr, ptr, %struct._zend_fcall_info_cache, %struct._zend_llist, %struct._zend_object }
%struct._zend_object = type { %struct._zend_refcounted_h, i32, i32, ptr, ptr, ptr, [1 x %struct._zval_struct] }

@.str = private unnamed_addr constant [5 x i8] c"p|ls\00", align 1
@executor_globals = external global %struct._zend_executor_globals, align 8
@zend_ce_exception = external global ptr, align 8
@.str.1 = private unnamed_addr constant [30 x i8] c"Already initialised DB Object\00", align 1
@.str.2 = private unnamed_addr constant [9 x i8] c":memory:\00", align 1
@.str.3 = private unnamed_addr constant [26 x i8] c"Unable to expand filepath\00", align 1
@.str.4 = private unnamed_addr constant [34 x i8] c"open_basedir prohibits opening %s\00", align 1
@.str.5 = private unnamed_addr constant [28 x i8] c"Unable to open database: %s\00", align 1
@empty_fcall_info_cache = external constant %struct._zend_fcall_info_cache, align 8
@sqlite3_globals = hidden global %struct._zend_sqlite3_globals zeroinitializer, align 8

; Function Attrs: inlinehint nounwind uwtable
define internal ptr @php_sqlite3_db_from_obj(ptr noundef %0) #2 {
  %2 = alloca ptr, align 8
  store ptr %0, ptr %2, align 8, !tbaa !67
  %3 = load ptr, ptr %2, align 8, !tbaa !67
  %4 = getelementptr inbounds i8, ptr %3, i64 -128
  ret ptr %4
}

; Function Attrs: nounwind uwtable
define hidden void @zim_SQLite3_open(ptr noundef %0, ptr noundef %1) #0 {
  %3 = alloca ptr, align 8
  %4 = alloca ptr, align 8
  %5 = alloca ptr, align 8
  %6 = alloca ptr, align 8
  %7 = alloca ptr, align 8
  %8 = alloca ptr, align 8
  %9 = alloca ptr, align 8
  %10 = alloca i64, align 8
  %11 = alloca i64, align 8
  %12 = alloca i64, align 8
  %13 = alloca i32, align 4
  %14 = alloca i32, align 4
  store ptr %0, ptr %3, align 8, !tbaa !4
  store ptr %1, ptr %4, align 8, !tbaa !9
  call void @llvm.lifetime.start.p0(i64 8, ptr %5) #15
  call void @llvm.lifetime.start.p0(i64 8, ptr %6) #15
  %15 = load ptr, ptr %3, align 8, !tbaa !4
  %16 = getelementptr inbounds nuw %struct._zend_execute_data, ptr %15, i32 0, i32 4
  store ptr %16, ptr %6, align 8, !tbaa !9
  call void @llvm.lifetime.start.p0(i64 8, ptr %7) #15
  call void @llvm.lifetime.start.p0(i64 8, ptr %8) #15
  call void @llvm.lifetime.start.p0(i64 8, ptr %9) #15
  call void @llvm.lifetime.start.p0(i64 8, ptr %10) #15
  call void @llvm.lifetime.start.p0(i64 8, ptr %11) #15
  store i64 0, ptr %11, align 8, !tbaa !11
  call void @llvm.lifetime.start.p0(i64 8, ptr %12) #15
  store i64 6, ptr %12, align 8, !tbaa !11
  call void @llvm.lifetime.start.p0(i64 4, ptr %13) #15
  %17 = load ptr, ptr %6, align 8, !tbaa !9
  %18 = getelementptr inbounds nuw %struct._zval_struct, ptr %17, i32 0, i32 0
  %19 = load ptr, ptr %18, align 8, !tbaa !13
  %20 = call ptr @php_sqlite3_db_from_obj(ptr noundef %19)
  store ptr %20, ptr %5, align 8, !tbaa !14
  %21 = load ptr, ptr %3, align 8, !tbaa !4
  %22 = getelementptr inbounds nuw %struct._zend_execute_data, ptr %21, i32 0, i32 4
  %23 = getelementptr inbounds nuw %struct._zval_struct, ptr %22, i32 0, i32 2
  %24 = load i32, ptr %23, align 4, !tbaa !13
  %25 = call i32 (i32, ptr, ...) @zend_parse_parameters(i32 noundef %24, ptr noundef @.str, ptr noundef %7, ptr noundef %10, ptr noundef %12, ptr noundef %8, ptr noundef %11)
  %26 = icmp eq i32 -1, %25
  br i1 %26, label %27, label %33

27:                                               ; preds = %2
  br label %28

28:                                               ; preds = %27
  %29 = load ptr, ptr getelementptr inbounds nuw (%struct._zend_executor_globals, ptr @executor_globals, i32 0, i32 54), align 8, !tbaa !16
  %30 = icmp ne ptr %29, null
  call void @llvm.assume(i1 %30)
  store i32 1, ptr %14, align 4
  br label %145

31:                                               ; No predecessors!
  br label %32

32:                                               ; preds = %31
  br label %33

33:                                               ; preds = %32, %2
  %34 = load ptr, ptr %5, align 8, !tbaa !14
  %35 = getelementptr inbounds nuw %struct._php_sqlite3_db_object, ptr %34, i32 0, i32 0
  %36 = load i8, ptr %35, align 8, !tbaa !48, !range !59, !noundef !60
  %37 = trunc i8 %36 to i1
  br i1 %37, label %38, label %46

38:                                               ; preds = %33
  %39 = load ptr, ptr @zend_ce_exception, align 8, !tbaa !61
  %40 = call ptr @zend_throw_exception(ptr noundef %39, ptr noundef @.str.1, i64 noundef 0)
  br label %41

41:                                               ; preds = %38
  %42 = load ptr, ptr getelementptr inbounds nuw (%struct._zend_executor_globals, ptr @executor_globals, i32 0, i32 54), align 8, !tbaa !16
  %43 = icmp ne ptr %42, null
  call void @llvm.assume(i1 %43)
  store i32 1, ptr %14, align 4
  br label %145

44:                                               ; No predecessors!
  br label %45

45:                                               ; preds = %44
  br label %46

46:                                               ; preds = %45, %33
  %47 = load i64, ptr %10, align 8, !tbaa !11
  %48 = icmp ne i64 %47, 0
  br i1 %48, label %49, label %83

49:                                               ; preds = %46
  %50 = load i64, ptr %10, align 8, !tbaa !11
  %51 = icmp ne i64 %50, 8
  br i1 %51, label %56, label %52

52:                                               ; preds = %49
  %53 = load ptr, ptr %7, align 8, !tbaa !62
  %54 = call i32 @memcmp(ptr noundef %53, ptr noundef @.str.2, i64 noundef 8) #16
  %55 = icmp ne i32 %54, 0
  br i1 %55, label %56, label %83

56:                                               ; preds = %52, %49
  %57 = load ptr, ptr %7, align 8, !tbaa !62
  %58 = call ptr @expand_filepath(ptr noundef %57, ptr noundef null)
  store ptr %58, ptr %9, align 8, !tbaa !62
  %59 = icmp ne ptr %58, null
  br i1 %59, label %68, label %60

60:                                               ; preds = %56
  %61 = load ptr, ptr @zend_ce_exception, align 8, !tbaa !61
  %62 = call ptr @zend_throw_exception(ptr noundef %61, ptr noundef @.str.3, i64 noundef 0)
  br label %63

63:                                               ; preds = %60
  %64 = load ptr, ptr getelementptr inbounds nuw (%struct._zend_executor_globals, ptr @executor_globals, i32 0, i32 54), align 8, !tbaa !16
  %65 = icmp ne ptr %64, null
  call void @llvm.assume(i1 %65)
  store i32 1, ptr %14, align 4
  br label %145

66:                                               ; No predecessors!
  br label %67

67:                                               ; preds = %66
  br label %68

68:                                               ; preds = %67, %56
  %69 = load ptr, ptr %9, align 8, !tbaa !62
  %70 = call i32 @php_check_open_basedir(ptr noundef %69)
  %71 = icmp ne i32 %70, 0
  br i1 %71, label %72, label %82

72:                                               ; preds = %68
  %73 = load ptr, ptr @zend_ce_exception, align 8, !tbaa !61
  %74 = load ptr, ptr %9, align 8, !tbaa !62
  %75 = call ptr (ptr, i64, ptr, ...) @zend_throw_exception_ex(ptr noundef %73, i64 noundef 0, ptr noundef @.str.4, ptr noundef %74)
  %76 = load ptr, ptr %9, align 8, !tbaa !62
  call void @_efree(ptr noundef %76)
  br label %77

77:                                               ; preds = %72
  %78 = load ptr, ptr getelementptr inbounds nuw (%struct._zend_executor_globals, ptr @executor_globals, i32 0, i32 54), align 8, !tbaa !16
  %79 = icmp ne ptr %78, null
  call void @llvm.assume(i1 %79)
  store i32 1, ptr %14, align 4
  br label %145

80:                                               ; No predecessors!
  br label %81

81:                                               ; preds = %80
  br label %82

82:                                               ; preds = %81, %68
  br label %85

83:                                               ; preds = %52, %46
  %84 = load ptr, ptr %7, align 8, !tbaa !62
  store ptr %84, ptr %9, align 8, !tbaa !62
  br label %85

85:                                               ; preds = %83, %82
  %86 = load ptr, ptr %9, align 8, !tbaa !62
  %87 = load ptr, ptr %5, align 8, !tbaa !14
  %88 = getelementptr inbounds nuw %struct._php_sqlite3_db_object, ptr %87, i32 0, i32 2
  %89 = load i64, ptr %12, align 8, !tbaa !11
  %90 = trunc i64 %89 to i32
  %91 = call i32 @sqlite3_open_v2(ptr noundef %86, ptr noundef %88, i32 noundef %90, ptr noundef null)
  store i32 %91, ptr %13, align 4, !tbaa !63
  %92 = load i32, ptr %13, align 4, !tbaa !63
  %93 = icmp ne i32 %92, 0
  br i1 %93, label %94, label %121

94:                                               ; preds = %85
  %95 = load ptr, ptr @zend_ce_exception, align 8, !tbaa !61
  %96 = load ptr, ptr %5, align 8, !tbaa !14
  %97 = getelementptr inbounds nuw %struct._php_sqlite3_db_object, ptr %96, i32 0, i32 2
  %98 = load ptr, ptr %97, align 8, !tbaa !64
  %99 = icmp ne ptr %98, null
  br i1 %99, label %100, label %105

100:                                              ; preds = %94
  %101 = load ptr, ptr %5, align 8, !tbaa !14
  %102 = getelementptr inbounds nuw %struct._php_sqlite3_db_object, ptr %101, i32 0, i32 2
  %103 = load ptr, ptr %102, align 8, !tbaa !64
  %104 = call ptr @sqlite3_errmsg(ptr noundef %103)
  br label %108

105:                                              ; preds = %94
  %106 = load i32, ptr %13, align 4, !tbaa !63
  %107 = call ptr @sqlite3_errstr(i32 noundef %106)
  br label %108

108:                                              ; preds = %105, %100
  %109 = phi ptr [ %104, %100 ], [ %107, %105 ]
  %110 = call ptr (ptr, i64, ptr, ...) @zend_throw_exception_ex(ptr noundef %95, i64 noundef 0, ptr noundef @.str.5, ptr noundef %109)
  %111 = load ptr, ptr %5, align 8, !tbaa !14
  %112 = getelementptr inbounds nuw %struct._php_sqlite3_db_object, ptr %111, i32 0, i32 2
  %113 = load ptr, ptr %112, align 8, !tbaa !64
  %114 = call i32 @sqlite3_close(ptr noundef %113)
  %115 = load ptr, ptr %9, align 8, !tbaa !62
  %116 = load ptr, ptr %7, align 8, !tbaa !62
  %117 = icmp ne ptr %115, %116
  br i1 %117, label %118, label %120

118:                                              ; preds = %108
  %119 = load ptr, ptr %9, align 8, !tbaa !62
  call void @_efree(ptr noundef %119)
  br label %120

120:                                              ; preds = %118, %108
  store i32 1, ptr %14, align 4
  br label %145

121:                                              ; preds = %85
  %122 = load ptr, ptr %5, align 8, !tbaa !14
  %123 = getelementptr inbounds nuw %struct._php_sqlite3_db_object, ptr %122, i32 0, i32 0
  store i8 1, ptr %123, align 8, !tbaa !48
  %124 = load ptr, ptr %5, align 8, !tbaa !14
  %125 = getelementptr inbounds nuw %struct._php_sqlite3_db_object, ptr %124, i32 0, i32 5
  call void @llvm.memcpy.p0.p0.i64(ptr align 8 %125, ptr align 8 @empty_fcall_info_cache, i64 40, i1 false), !tbaa.struct !65
  %126 = load ptr, ptr %5, align 8, !tbaa !14
  %127 = getelementptr inbounds nuw %struct._php_sqlite3_db_object, ptr %126, i32 0, i32 2
  %128 = load ptr, ptr %127, align 8, !tbaa !64
  %129 = load ptr, ptr %5, align 8, !tbaa !14
  %130 = call i32 @sqlite3_set_authorizer(ptr noundef %128, ptr noundef @php_sqlite3_authorizer, ptr noundef %129)
  %131 = load i32, ptr getelementptr inbounds nuw (%struct._zend_sqlite3_globals, ptr @sqlite3_globals, i32 0, i32 1), align 8, !tbaa !68
  %132 = icmp ne i32 %131, 0
  br i1 %132, label %133, label %138

133:                                              ; preds = %121
  %134 = load ptr, ptr %5, align 8, !tbaa !14
  %135 = getelementptr inbounds nuw %struct._php_sqlite3_db_object, ptr %134, i32 0, i32 2
  %136 = load ptr, ptr %135, align 8, !tbaa !64
  %137 = call i32 (ptr, i32, ...) @sqlite3_db_config(ptr noundef %136, i32 noundef 1010, i32 noundef 1, ptr noundef null)
  br label %138

138:                                              ; preds = %133, %121
  %139 = load ptr, ptr %9, align 8, !tbaa !62
  %140 = load ptr, ptr %7, align 8, !tbaa !62
  %141 = icmp ne ptr %139, %140
  br i1 %141, label %142, label %144

142:                                              ; preds = %138
  %143 = load ptr, ptr %9, align 8, !tbaa !62
  call void @_efree(ptr noundef %143)
  br label %144

144:                                              ; preds = %142, %138
  store i32 0, ptr %14, align 4
  br label %145

145:                                              ; preds = %144, %120, %77, %63, %41, %28
  call void @llvm.lifetime.end.p0(i64 4, ptr %13) #15
  call void @llvm.lifetime.end.p0(i64 8, ptr %12) #15
  call void @llvm.lifetime.end.p0(i64 8, ptr %11) #15
  call void @llvm.lifetime.end.p0(i64 8, ptr %10) #15
  call void @llvm.lifetime.end.p0(i64 8, ptr %9) #15
  call void @llvm.lifetime.end.p0(i64 8, ptr %8) #15
  call void @llvm.lifetime.end.p0(i64 8, ptr %7) #15
  call void @llvm.lifetime.end.p0(i64 8, ptr %6) #15
  call void @llvm.lifetime.end.p0(i64 8, ptr %5) #15
  %146 = load i32, ptr %14, align 4
  switch i32 %146, label %148 [
    i32 0, label %147
    i32 1, label %147
  ]

147:                                              ; preds = %145, %145
  ret void

148:                                              ; preds = %145
  unreachable
}