; Function Attrs: nounwind uwtable
define hidden void @zim_SQLite3_open(ptr noundef readonly captures(none) %0, ptr readnone captures(none) %1) #0 {
  %3 = alloca ptr, align 8
  %4 = alloca ptr, align 8
  %5 = alloca i64, align 8
  %6 = alloca i64, align 8
  %7 = alloca i64, align 8
  %8 = getelementptr inbounds nuw i8, ptr %0, i64 32
  call void @llvm.lifetime.start.p0(i64 8, ptr nonnull %3) #17
  call void @llvm.lifetime.start.p0(i64 8, ptr nonnull %4) #17
  call void @llvm.lifetime.start.p0(i64 8, ptr nonnull %5) #17
  call void @llvm.lifetime.start.p0(i64 8, ptr nonnull %6) #17
  store i64 0, ptr %6, align 8, !tbaa !4
  call void @llvm.lifetime.start.p0(i64 8, ptr nonnull %7) #17
  store i64 6, ptr %7, align 8, !tbaa !4
  %9 = load ptr, ptr %8, align 8, !tbaa !8
  %10 = getelementptr inbounds i8, ptr %9, i64 -128
  %11 = getelementptr inbounds nuw i8, ptr %0, i64 44
  %12 = load i32, ptr %11, align 4, !tbaa !8
  %13 = call i32 (i32, ptr, ...) @zend_parse_parameters(i32 noundef %12, ptr noundef nonnull @.str, ptr noundef nonnull %3, ptr noundef nonnull %5, ptr noundef nonnull %7, ptr noundef nonnull %4, ptr noundef nonnull %6) #17
  %14 = icmp eq i32 %13, -1
  br i1 %14, label %15, label %18

15:                                               ; preds = %2
  %16 = load ptr, ptr getelementptr inbounds nuw (i8, ptr @executor_globals, i64 960), align 8, !tbaa !9
  %17 = icmp ne ptr %16, null
  call void @llvm.assume(i1 %17)
  br label %71

18:                                               ; preds = %2
  %19 = load i8, ptr %10, align 8, !tbaa !44, !range !55, !noundef !56
  %20 = trunc nuw i8 %19 to i1
  br i1 %20, label %21, label %26

21:                                               ; preds = %18
  %22 = load ptr, ptr @zend_ce_exception, align 8, !tbaa !57
  %23 = call ptr @zend_throw_exception(ptr noundef %22, ptr noundef nonnull @.str.1, i64 noundef 0) #17
  %24 = load ptr, ptr getelementptr inbounds nuw (i8, ptr @executor_globals, i64 960), align 8, !tbaa !9
  %25 = icmp ne ptr %24, null
  call void @llvm.assume(i1 %25)
  br label %71

26:                                               ; preds = %18
  %27 = load i64, ptr %5, align 8, !tbaa !4
  %.pre36 = load ptr, ptr %3, align 8, !tbaa !58
  switch i64 %27, label %._crit_edge35 [
    i64 0, label %._crit_edge
    i64 8, label %28
  ]

28:                                               ; preds = %26
  %bcmp = call i32 @bcmp(ptr noundef nonnull dereferenceable(8) %.pre36, ptr noundef nonnull dereferenceable(8) @.str.2, i64 8)
  %.not27 = icmp eq i32 %bcmp, 0
  br i1 %.not27, label %._crit_edge, label %._crit_edge35

._crit_edge35:                                    ; preds = %26, %28
  %29 = call ptr @expand_filepath(ptr noundef %.pre36, ptr noundef null) #17
  %.not28 = icmp eq ptr %29, null
  br i1 %.not28, label %30, label %35

30:                                               ; preds = %._crit_edge35
  %31 = load ptr, ptr @zend_ce_exception, align 8, !tbaa !57
  %32 = call ptr @zend_throw_exception(ptr noundef %31, ptr noundef nonnull @.str.3, i64 noundef 0) #17
  %33 = load ptr, ptr getelementptr inbounds nuw (i8, ptr @executor_globals, i64 960), align 8, !tbaa !9
  %34 = icmp ne ptr %33, null
  call void @llvm.assume(i1 %34)
  br label %71

35:                                               ; preds = %._crit_edge35
  %36 = call i32 @php_check_open_basedir(ptr noundef nonnull %29) #17
  %.not29 = icmp eq i32 %36, 0
  br i1 %.not29, label %._crit_edge, label %37

37:                                               ; preds = %35
  %38 = load ptr, ptr @zend_ce_exception, align 8, !tbaa !57
  %39 = call ptr (ptr, i64, ptr, ...) @zend_throw_exception_ex(ptr noundef %38, i64 noundef 0, ptr noundef nonnull @.str.4, ptr noundef nonnull %29) #17
  call void @_efree(ptr noundef nonnull %29) #17
  %40 = load ptr, ptr getelementptr inbounds nuw (i8, ptr @executor_globals, i64 960), align 8, !tbaa !9
  %41 = icmp ne ptr %40, null
  call void @llvm.assume(i1 %41)
  br label %71

._crit_edge:                                      ; preds = %26, %28, %35
  %.0 = phi ptr [ %29, %35 ], [ %.pre36, %28 ], [ %.pre36, %26 ]
  %42 = getelementptr inbounds i8, ptr %9, i64 -120
  %43 = load i64, ptr %7, align 8, !tbaa !4
  %44 = trunc i64 %43 to i32
  %45 = call i32 @sqlite3_open_v2(ptr noundef %.0, ptr noundef nonnull %42, i32 noundef %44, ptr noundef null) #17
  %.not30 = icmp eq i32 %45, 0
  br i1 %.not30, label %60, label %46

46:                                               ; preds = %._crit_edge
  %47 = load ptr, ptr @zend_ce_exception, align 8, !tbaa !57
  %48 = load ptr, ptr %42, align 8, !tbaa !59
  %.not33 = icmp eq ptr %48, null
  br i1 %.not33, label %51, label %49

49:                                               ; preds = %46
  %50 = call ptr @sqlite3_errmsg(ptr noundef nonnull %48) #17
  br label %53

51:                                               ; preds = %46
  %52 = call ptr @sqlite3_errstr(i32 noundef %45) #17
  br label %53

53:                                               ; preds = %51, %49
  %54 = phi ptr [ %50, %49 ], [ %52, %51 ]
  %55 = call ptr (ptr, i64, ptr, ...) @zend_throw_exception_ex(ptr noundef %47, i64 noundef 0, ptr noundef nonnull @.str.5, ptr noundef %54) #17
  %56 = load ptr, ptr %42, align 8, !tbaa !59
  %57 = call i32 @sqlite3_close(ptr noundef %56) #17
  %58 = load ptr, ptr %3, align 8, !tbaa !58
  %.not34 = icmp eq ptr %.0, %58
  br i1 %.not34, label %71, label %59

59:                                               ; preds = %53
  call void @_efree(ptr noundef %.0) #17
  br label %71

60:                                               ; preds = %._crit_edge
  store i8 1, ptr %10, align 8, !tbaa !44
  %61 = getelementptr inbounds i8, ptr %9, i64 -96
  call void @llvm.memcpy.p0.p0.i64(ptr noundef nonnull align 8 dereferenceable(40) %61, ptr noundef nonnull align 8 dereferenceable(40) @empty_fcall_info_cache, i64 40, i1 false), !tbaa.struct !60
  %62 = load ptr, ptr %42, align 8, !tbaa !59
  %63 = call i32 @sqlite3_set_authorizer(ptr noundef %62, ptr noundef nonnull @php_sqlite3_authorizer, ptr noundef nonnull %10) #17
  %64 = load i32, ptr getelementptr inbounds nuw (i8, ptr @sqlite3_globals, i64 8), align 8, !tbaa !63
  %.not31 = icmp eq i32 %64, 0
  br i1 %.not31, label %68, label %65

65:                                               ; preds = %60
  %66 = load ptr, ptr %42, align 8, !tbaa !59
  %67 = call i32 (ptr, i32, ...) @sqlite3_db_config(ptr noundef %66, i32 noundef 1010, i32 noundef 1, ptr noundef null) #17
  br label %68

68:                                               ; preds = %65, %60
  %69 = load ptr, ptr %3, align 8, !tbaa !58
  %.not32 = icmp eq ptr %.0, %69
  br i1 %.not32, label %71, label %70

70:                                               ; preds = %68
  call void @_efree(ptr noundef %.0) #17
  br label %71

71:                                               ; preds = %68, %70, %53, %59, %37, %30, %21, %15
  call void @llvm.lifetime.end.p0(i64 8, ptr nonnull %7) #17
  call void @llvm.lifetime.end.p0(i64 8, ptr nonnull %6) #17
  call void @llvm.lifetime.end.p0(i64 8, ptr nonnull %5) #17
  call void @llvm.lifetime.end.p0(i64 8, ptr nonnull %4) #17
  call void @llvm.lifetime.end.p0(i64 8, ptr nonnull %3) #17
  ret void
}